target datalayout = "e-m:e-p270:32:32-p271:32:32-p272:64:64-i64:64-i128:128-f80:128-n8:16:32:64-S128"
target triple = "x86_64-pc-linux-gnu"

%struct.SnapBuild = type { i32, ptr, i32, i32, i64, i64, i32, i8, i8, ptr, i64, ptr, i32, %struct.anon, %struct.anon.0 }
%struct.anon = type { i64, i64, i8, ptr }
%struct.anon.0 = type { i64, ptr }
%struct.xl_heap_new_cid = type { i32, i32, i32, i32, %struct.RelFileLocator, %struct.ItemPointerData }
%struct.RelFileLocator = type { i32, i32, i32 }
%struct.ItemPointerData = type { %struct.BlockIdData, i16 }
%struct.BlockIdData = type { i16, i16 }

@.str.2 = private unnamed_addr constant [12 x i8] c"snapbuild.c\00", align 1
@.str.14 = private unnamed_addr constant [49 x i8] c"xl_heap_new_cid record without a valid CommandId\00", align 1
@__func__.SnapBuildProcessNewCid = private unnamed_addr constant [23 x i8] c"SnapBuildProcessNewCid\00", align 1

; Function Attrs: nounwind uwtable
define dso_local void @SnapBuildProcessNewCid(ptr noundef %0, i32 noundef %1, i64 noundef %2, ptr noundef %3) #0 {
  %5 = alloca ptr, align 8
  %6 = alloca i32, align 4
  %7 = alloca i64, align 8
  %8 = alloca ptr, align 8
  %9 = alloca i32, align 4
  %10 = alloca { i64, i32 }, align 4
  %11 = alloca i48, align 8
  store ptr %0, ptr %5, align 8
  store i32 %1, ptr %6, align 4
  store i64 %2, ptr %7, align 8
  store ptr %3, ptr %8, align 8
  call void @llvm.lifetime.start.p0(i64 4, ptr %9) #9
  %12 = load ptr, ptr %5, align 8
  %13 = getelementptr inbounds nuw %struct.SnapBuild, ptr %12, i32 0, i32 11
  %14 = load ptr, ptr %13, align 8
  %15 = load i32, ptr %6, align 4
  %16 = load i64, ptr %7, align 8
  call void @ReorderBufferXidSetCatalogChanges(ptr noundef %14, i32 noundef %15, i64 noundef %16)
  %17 = load ptr, ptr %5, align 8
  %18 = getelementptr inbounds nuw %struct.SnapBuild, ptr %17, i32 0, i32 11
  %19 = load ptr, ptr %18, align 8
  %20 = load ptr, ptr %8, align 8
  %21 = getelementptr inbounds nuw %struct.xl_heap_new_cid, ptr %20, i32 0, i32 0
  %22 = load i32, ptr %21, align 4
  %23 = load i64, ptr %7, align 8
  %24 = load ptr, ptr %8, align 8
  %25 = getelementptr inbounds nuw %struct.xl_heap_new_cid, ptr %24, i32 0, i32 4
  %26 = load ptr, ptr %8, align 8
  %27 = getelementptr inbounds nuw %struct.xl_heap_new_cid, ptr %26, i32 0, i32 5
  %28 = load ptr, ptr %8, align 8
  %29 = getelementptr inbounds nuw %struct.xl_heap_new_cid, ptr %28, i32 0, i32 1
  %30 = load i32, ptr %29, align 4
  %31 = load ptr, ptr %8, align 8
  %32 = getelementptr inbounds nuw %struct.xl_heap_new_cid, ptr %31, i32 0, i32 2
  %33 = load i32, ptr %32, align 4
  %34 = load ptr, ptr %8, align 8
  %35 = getelementptr inbounds nuw %struct.xl_heap_new_cid, ptr %34, i32 0, i32 3
  %36 = load i32, ptr %35, align 4
  call void @llvm.memcpy.p0.p0.i64(ptr align 4 %10, ptr align 4 %25, i64 12, i1 false)
  %37 = getelementptr inbounds nuw { i64, i32 }, ptr %10, i32 0, i32 0
  %38 = load i64, ptr %37, align 4
  %39 = getelementptr inbounds nuw { i64, i32 }, ptr %10, i32 0, i32 1
  %40 = load i32, ptr %39, align 4
  call void @llvm.memcpy.p0.p0.i64(ptr align 8 %11, ptr align 4 %27, i64 6, i1 false)
  %41 = load i48, ptr %11, align 8
  call void @ReorderBufferAddNewTupleCids(ptr noundef %19, i32 noundef %22, i64 noundef %23, i64 %38, i32 %40, i48 %41, i32 noundef %30, i32 noundef %33, i32 noundef %36)
  %42 = load ptr, ptr %8, align 8
  %43 = getelementptr inbounds nuw %struct.xl_heap_new_cid, ptr %42, i32 0, i32 1
  %44 = load i32, ptr %43, align 4
  %45 = icmp ne i32 %44, -1
  br i1 %45, label %46, label %69

46:                                               ; preds = %4
  %47 = load ptr, ptr %8, align 8
  %48 = getelementptr inbounds nuw %struct.xl_heap_new_cid, ptr %47, i32 0, i32 2
  %49 = load i32, ptr %48, align 4
  %50 = icmp ne i32 %49, -1
  br i1 %50, label %51, label %69

51:                                               ; preds = %46
  %52 = load ptr, ptr %8, align 8
  %53 = getelementptr inbounds nuw %struct.xl_heap_new_cid, ptr %52, i32 0, i32 1
  %54 = load i32, ptr %53, align 4
  %55 = load ptr, ptr %8, align 8
  %56 = getelementptr inbounds nuw %struct.xl_heap_new_cid, ptr %55, i32 0, i32 2
  %57 = load i32, ptr %56, align 4
  %58 = icmp ugt i32 %54, %57
  br i1 %58, label %59, label %63

59:                                               ; preds = %51
  %60 = load ptr, ptr %8, align 8
  %61 = getelementptr inbounds nuw %struct.xl_heap_new_cid, ptr %60, i32 0, i32 1
  %62 = load i32, ptr %61, align 4
  br label %67

63:                                               ; preds = %51
  %64 = load ptr, ptr %8, align 8
  %65 = getelementptr inbounds nuw %struct.xl_heap_new_cid, ptr %64, i32 0, i32 2
  %66 = load i32, ptr %65, align 4
  br label %67

67:                                               ; preds = %63, %59
  %68 = phi i32 [ %62, %59 ], [ %66, %63 ]
  store i32 %68, ptr %9, align 4
  br label %100

69:                                               ; preds = %46, %4
  %70 = load ptr, ptr %8, align 8
  %71 = getelementptr inbounds nuw %struct.xl_heap_new_cid, ptr %70, i32 0, i32 2
  %72 = load i32, ptr %71, align 4
  %73 = icmp ne i32 %72, -1
  br i1 %73, label %74, label %78

74:                                               ; preds = %69
  %75 = load ptr, ptr %8, align 8
  %76 = getelementptr inbounds nuw %struct.xl_heap_new_cid, ptr %75, i32 0, i32 2
  %77 = load i32, ptr %76, align 4
  store i32 %77, ptr %9, align 4
  br label %99

78:                                               ; preds = %69
  %79 = load ptr, ptr %8, align 8
  %80 = getelementptr inbounds nuw %struct.xl_heap_new_cid, ptr %79, i32 0, i32 1
  %81 = load i32, ptr %80, align 4
  %82 = icmp ne i32 %81, -1
  br i1 %82, label %83, label %87

83:                                               ; preds = %78
  %84 = load ptr, ptr %8, align 8
  %85 = getelementptr inbounds nuw %struct.xl_heap_new_cid, ptr %84, i32 0, i32 1
  %86 = load i32, ptr %85, align 4
  store i32 %86, ptr %9, align 4
  br label %98

87:                                               ; preds = %78
  store i32 -1, ptr %9, align 4
  br label %88

88:                                               ; preds = %87
  br i1 true, label %89, label %91

89:                                               ; preds = %88
  %90 = call zeroext i1 @errstart_cold(i32 noundef 21, ptr noundef null) #10
  br i1 %90, label %93, label %95

91:                                               ; preds = %88
  %92 = call zeroext i1 @errstart(i32 noundef 21, ptr noundef null)
  br i1 %92, label %93, label %95

93:                                               ; preds = %91, %89
  %94 = call i32 (ptr, ...) @errmsg_internal(ptr noundef @.str.14)
  call void @errfinish(ptr noundef @.str.2, i32 noundef 716, ptr noundef @__func__.SnapBuildProcessNewCid)
  br label %95

95:                                               ; preds = %93, %91, %89
  unreachable

96:                                               ; No predecessors!
  br label %97

97:                                               ; preds = %96
  br label %98

98:                                               ; preds = %97, %83
  br label %99

99:                                               ; preds = %98, %74
  br label %100

100:                                              ; preds = %99, %67
  %101 = load ptr, ptr %5, align 8
  %102 = getelementptr inbounds nuw %struct.SnapBuild, ptr %101, i32 0, i32 11
  %103 = load ptr, ptr %102, align 8
  %104 = load i32, ptr %6, align 4
  %105 = load i64, ptr %7, align 8
  %106 = load i32, ptr %9, align 4
  %107 = add i32 %106, 1
  call void @ReorderBufferAddNewCommandId(ptr noundef %103, i32 noundef %104, i64 noundef %105, i32 noundef %107)
  call void @llvm.lifetime.end.p0(i64 4, ptr %9) #9
  ret void
}