; Function Attrs: nounwind uwtable
define dso_local void @SnapBuildProcessNewCid(ptr noundef readonly captures(none) %0, i32 noundef %1, i64 noundef %2, ptr noundef readonly captures(none) %3) local_unnamed_addr #0 {
  %5 = getelementptr inbounds nuw i8, ptr %0, i64 64
  %6 = load ptr, ptr %5, align 8
  tail call void @ReorderBufferXidSetCatalogChanges(ptr noundef %6, i32 noundef %1, i64 noundef %2) #14
  %7 = load ptr, ptr %5, align 8
  %8 = load i32, ptr %3, align 4
  %9 = getelementptr inbounds nuw i8, ptr %3, i64 16
  %10 = getelementptr inbounds nuw i8, ptr %3, i64 28
  %11 = getelementptr inbounds nuw i8, ptr %3, i64 4
  %12 = load i32, ptr %11, align 4
  %13 = getelementptr inbounds nuw i8, ptr %3, i64 8
  %14 = load i32, ptr %13, align 4
  %15 = getelementptr inbounds nuw i8, ptr %3, i64 12
  %16 = load i32, ptr %15, align 4
  %.sroa.0.0.copyload = load i64, ptr %9, align 4
  %.sroa.2.0..sroa_idx = getelementptr inbounds nuw i8, ptr %3, i64 24
  %.sroa.2.0.copyload = load i32, ptr %.sroa.2.0..sroa_idx, align 4
  %.0.copyload = load i48, ptr %10, align 4
  tail call void @ReorderBufferAddNewTupleCids(ptr noundef %7, i32 noundef %8, i64 noundef %2, i64 %.sroa.0.0.copyload, i32 %.sroa.2.0.copyload, i48 %.0.copyload, i32 noundef %12, i32 noundef %14, i32 noundef %16) #14
  %17 = load i32, ptr %11, align 4
  %.not = icmp eq i32 %17, -1
  %.pr = load i32, ptr %13, align 4
  %.not30 = icmp eq i32 %.pr, -1
  br i1 %.not, label %20, label %18

18:                                               ; preds = %4
  br i1 %.not30, label %24, label %19

19:                                               ; preds = %18
  %. = tail call i32 @llvm.umax.i32(i32 %17, i32 %.pr)
  br label %24

20:                                               ; preds = %4
  br i1 %.not30, label %21, label %24

21:                                               ; preds = %20
  %22 = tail call zeroext i1 @errstart_cold(i32 noundef 21, ptr noundef null) #15
  tail call void @llvm.assume(i1 %22)
  %23 = tail call i32 (ptr, ...) @errmsg_internal(ptr noundef nonnull @.str.14) #14
  tail call void @errfinish(ptr noundef nonnull @.str.2, i32 noundef 716, ptr noundef nonnull @__func__.SnapBuildProcessNewCid) #14
  unreachable

24:                                               ; preds = %18, %20, %19
  %.0 = phi i32 [ %., %19 ], [ %.pr, %20 ], [ %17, %18 ]
  %25 = load ptr, ptr %5, align 8
  %26 = add nuw i32 %.0, 1
  tail call void @ReorderBufferAddNewCommandId(ptr noundef %25, i32 noundef %1, i64 noundef %2, i32 noundef %26) #14
  ret void
}